target datalayout = "e-m:e-p270:32:32-p271:32:32-p272:64:64-i64:64-i128:128-f80:128-n8:16:32:64-S128"
target triple = "x86_64-pc-linux-gnu"

%struct.ticker_geom_s = type { i32, i32 }
%struct.tsd_link_t = type { ptr, ptr }
%struct.peak_s = type { i64, i64 }
%struct.activity_callback_thunk_s = type { ptr, ptr }
%struct.anon = type { ptr, ptr }
%struct.cache_bin_array_descriptor_s = type { %struct.anon.0, ptr }
%struct.anon.0 = type { ptr, ptr }
%struct.rtree_ctx_s = type { [16 x %struct.rtree_ctx_cache_elm_s], [8 x %struct.rtree_ctx_cache_elm_s] }
%struct.rtree_ctx_cache_elm_s = type { i64, ptr }
%struct.atomic_u8_t = type { i8 }
%struct.tcache_s = type { ptr, [73 x %struct.cache_bin_s] }
%struct.cache_bin_s = type { ptr, %struct.cache_bin_stats_s, i16, i16, i16, %struct.cache_bin_info_s }
%struct.cache_bin_stats_s = type { i64 }
%struct.cache_bin_info_s = type { i16 }
%struct.witness_list_t = type { ptr }
%struct.atomic_u32_t = type { i32 }
%struct.malloc_mutex_s = type { %union.anon }
%union.anon = type { %struct.anon.1 }
%struct.anon.1 = type { %struct.mutex_prof_data_t, %struct.atomic_b_t, %union.pthread_mutex_t }
%struct.mutex_prof_data_t = type { %struct.nstime_t, %struct.nstime_t, i64, i64, i32, %struct.atomic_u32_t, i64, ptr, i64 }
%struct.nstime_t = type { i64 }
%struct.atomic_b_t = type { i8 }
%union.pthread_mutex_t = type { %struct.__pthread_mutex_s }
%struct.__pthread_mutex_s = type { i32, i32, i32, i32, i32, i16, i16, %struct.__pthread_internal_list }
%struct.__pthread_internal_list = type { ptr, ptr }
%struct.tsd_s = type { i8, i8, i8, i64, i64, i64, i64, i64, i64, i64, i64, i64, i64, i64, i64, ptr, i64, i64, i64, ptr, ptr, %struct.ticker_geom_s, i8, %struct.tsd_binshards_s, %struct.tsd_link_t, i8, %struct.peak_s, %struct.activity_callback_thunk_s, %struct.tcache_slow_s, %struct.rtree_ctx_s, %struct.atomic_u8_t, i64, i64, i64, i64, %struct.tcache_s, %struct.witness_tsd_s }
%struct.tsd_binshards_s = type { [36 x i8] }
%struct.tcache_slow_s = type { %struct.anon, %struct.cache_bin_array_descriptor_s, ptr, i32, i32, [36 x i8], [36 x i8], [36 x i8], ptr, ptr }
%struct.witness_tsd_s = type { %struct.witness_list_t, i8 }

@duckdb_je_tsd_booted = global i8 0, align 1
@tsd_nominal_tsds_lock = internal global %struct.malloc_mutex_s zeroinitializer, align 8
@.str = private unnamed_addr constant [22 x i8] c"tsd_nominal_tsds_lock\00", align 1
@duckdb_je_tsd_tsd = global i32 0, align 4

; Function Attrs: alwaysinline nounwind uwtable
define internal void @tsd_assert_fast(ptr noundef %0) #1 {
  %2 = alloca ptr, align 8
  store ptr %0, ptr %2, align 8, !tbaa !14
  br label %3

3:                                                ; preds = %1
  br label %4

4:                                                ; preds = %3
  ret void
}

; Function Attrs: alwaysinline nounwind uwtable
define internal zeroext i8 @tsd_state_get(ptr noundef %0) #1 {
  %2 = alloca ptr, align 8
  store ptr %0, ptr %2, align 8, !tbaa !14
  %3 = load ptr, ptr %2, align 8, !tbaa !14
  %4 = getelementptr inbounds nuw %struct.tsd_s, ptr %3, i32 0, i32 30
  %5 = load i8, ptr %4, align 8, !tbaa !40
  ret i8 %5
}

; Function Attrs: alwaysinline nounwind uwtable
define internal zeroext i1 @tsd_get_allocates() #1 {
  ret i1 false
}

; Function Attrs: alwaysinline nounwind uwtable
define internal ptr @tsd_get(i1 noundef zeroext %0) #1 {
  %2 = alloca i8, align 1
  %3 = zext i1 %0 to i8
  store i8 %3, ptr %2, align 1, !tbaa !41
  %4 = call align 8 ptr @llvm.threadlocal.address.p0(ptr align 8 @duckdb_je_tsd_tls)
  ret ptr %4
}

; Function Attrs: alwaysinline nounwind uwtable
define internal ptr @tsd_fetch_impl(i1 noundef zeroext %0, i1 noundef zeroext %1) #1 {
  %3 = alloca ptr, align 8
  %4 = alloca i8, align 1
  %5 = alloca i8, align 1
  %6 = alloca ptr, align 8
  %7 = alloca i32, align 4
  %8 = zext i1 %0 to i8
  store i8 %8, ptr %4, align 1, !tbaa !41
  %9 = zext i1 %1 to i8
  store i8 %9, ptr %5, align 1, !tbaa !41
  call void @llvm.lifetime.start.p0(i64 8, ptr %6) #10
  %10 = load i8, ptr %4, align 1, !tbaa !41, !range !42, !noundef !43
  %11 = trunc i8 %10 to i1
  %12 = call ptr @tsd_get(i1 noundef zeroext %11)
  store ptr %12, ptr %6, align 8, !tbaa !14
  %13 = load i8, ptr %4, align 1, !tbaa !41, !range !42, !noundef !43
  %14 = trunc i8 %13 to i1
  br i1 %14, label %21, label %15

15:                                               ; preds = %2
  %16 = call zeroext i1 @tsd_get_allocates()
  br i1 %16, label %17, label %21

17:                                               ; preds = %15
  %18 = load ptr, ptr %6, align 8, !tbaa !14
  %19 = icmp eq ptr %18, null
  br i1 %19, label %20, label %21

20:                                               ; preds = %17
  store ptr null, ptr %3, align 8
  store i32 1, ptr %7, align 4
  br label %46

21:                                               ; preds = %17, %15, %2
  br label %22

22:                                               ; preds = %21
  br label %23

23:                                               ; preds = %22
  br label %24

24:                                               ; preds = %23
  %25 = load ptr, ptr %6, align 8, !tbaa !14
  %26 = call zeroext i8 @tsd_state_get(ptr noundef %25)
  %27 = zext i8 %26 to i32
  %28 = icmp ne i32 %27, 0
  %29 = xor i1 %28, true
  %30 = xor i1 %29, true
  %31 = zext i1 %30 to i32
  %32 = sext i32 %31 to i64
  %33 = call i64 @llvm.expect.i64(i64 %32, i64 0)
  %34 = icmp ne i64 %33, 0
  br i1 %34, label %35, label %40

35:                                               ; preds = %24
  %36 = load ptr, ptr %6, align 8, !tbaa !14
  %37 = load i8, ptr %5, align 1, !tbaa !41, !range !42, !noundef !43
  %38 = trunc i8 %37 to i1
  %39 = call ptr @duckdb_je_tsd_fetch_slow(ptr noundef %36, i1 noundef zeroext %38)
  store ptr %39, ptr %3, align 8
  store i32 1, ptr %7, align 4
  br label %46

40:                                               ; preds = %24
  br label %41

41:                                               ; preds = %40
  br label %42

42:                                               ; preds = %41
  br label %43

43:                                               ; preds = %42
  %44 = load ptr, ptr %6, align 8, !tbaa !14
  call void @tsd_assert_fast(ptr noundef %44)
  %45 = load ptr, ptr %6, align 8, !tbaa !14
  store ptr %45, ptr %3, align 8
  store i32 1, ptr %7, align 4
  br label %46

46:                                               ; preds = %43, %35, %20
  call void @llvm.lifetime.end.p0(i64 8, ptr %6) #10
  %47 = load ptr, ptr %3, align 8
  ret ptr %47
}

; Function Attrs: alwaysinline nounwind uwtable
define internal ptr @tsd_fetch() #1 {
  %1 = call ptr @tsd_fetch_impl(i1 noundef zeroext true, i1 noundef zeroext false)
  ret ptr %1
}

; Function Attrs: alwaysinline nounwind uwtable
define internal zeroext i1 @tsd_boot0() #1 {
  %1 = alloca i1, align 1
  %2 = call i32 @pthread_key_create(ptr noundef @duckdb_je_tsd_tsd, ptr noundef @duckdb_je_tsd_cleanup) #10
  %3 = icmp ne i32 %2, 0
  br i1 %3, label %4, label %5

4:                                                ; preds = %0
  store i1 true, ptr %1, align 1
  br label %6

5:                                                ; preds = %0
  store i8 1, ptr @duckdb_je_tsd_booted, align 1, !tbaa !41
  store i1 false, ptr %1, align 1
  br label %6

6:                                                ; preds = %5, %4
  %7 = load i1, ptr %1, align 1
  ret i1 %7
}

; Function Attrs: nounwind uwtable
define ptr @duckdb_je_malloc_tsd_boot0() #0 {
  %1 = alloca ptr, align 8
  %2 = alloca ptr, align 8
  %3 = alloca i32, align 4
  call void @llvm.lifetime.start.p0(i64 8, ptr %2) #10
  %4 = call zeroext i1 @duckdb_je_malloc_mutex_init(ptr noundef @tsd_nominal_tsds_lock, ptr noundef @.str, i32 noundef 0, i32 noundef 0)
  br i1 %4, label %5, label %6

5:                                                ; preds = %0
  store ptr null, ptr %1, align 8
  store i32 1, ptr %3, align 4
  br label %12

6:                                                ; preds = %0
  %7 = call zeroext i1 @tsd_boot0()
  br i1 %7, label %8, label %9

8:                                                ; preds = %6
  store ptr null, ptr %1, align 8
  store i32 1, ptr %3, align 4
  br label %12

9:                                                ; preds = %6
  %10 = call ptr @tsd_fetch()
  store ptr %10, ptr %2, align 8, !tbaa !14
  %11 = load ptr, ptr %2, align 8, !tbaa !14
  store ptr %11, ptr %1, align 8
  store i32 1, ptr %3, align 4
  br label %12

12:                                               ; preds = %9, %8, %5
  call void @llvm.lifetime.end.p0(i64 8, ptr %2) #10
  %13 = load ptr, ptr %1, align 8
  ret ptr %13
}